#include <math.h>
#include <stdio.h>
#include <stdlib.h>
#include <string.h>

int main(){
	int q[100];
	double s[100];
	int i=0;
	int j=0;
	int m;
	int a=2;
	int b=1;
	int e;
	scanf("%d",&m);
	for(i=0;i<m;i++){
		scanf("%d",&q[i]);
		s[i]=0;
		a=2;
		b=1;
		for(j=0;j<q[i];j++){
			s[i]+=(1.0*a)/b;
			e=a;
			a=a+b;
			b=e;
		}
	}
	for(i=0;i<m;i++){
	    printf("%.3lf\n",s[i]);
	}
	return 0;
}